; Function Attrs: nounwind uwtable
define void @jpeg_add_quant_table(ptr noundef %0, i32 noundef %1, ptr noundef readonly captures(none) %2, i32 noundef %3, i32 noundef %4) local_unnamed_addr #0 {
  %6 = getelementptr inbounds nuw i8, ptr %0, i64 36
  %7 = load i32, ptr %6, align 4, !tbaa !3
  %.not = icmp eq i32 %7, 100
  br i1 %.not, label %14, label %8

8:                                                ; preds = %5
  %9 = load ptr, ptr %0, align 8, !tbaa !24
  %10 = getelementptr inbounds nuw i8, ptr %9, i64 40
  store i32 20, ptr %10, align 8, !tbaa !25
  %11 = getelementptr inbounds nuw i8, ptr %9, i64 44
  store i32 %7, ptr %11, align 4, !tbaa !29
  %12 = load ptr, ptr %0, align 8, !tbaa !24
  %13 = load ptr, ptr %12, align 8, !tbaa !30
  tail call void %13(ptr noundef nonnull %0) #6
  br label %14

14:                                               ; preds = %8, %5
  %or.cond = icmp ugt i32 %1, 3
  br i1 %or.cond, label %15, label %21

15:                                               ; preds = %14
  %16 = load ptr, ptr %0, align 8, !tbaa !24
  %17 = getelementptr inbounds nuw i8, ptr %16, i64 40
  store i32 31, ptr %17, align 8, !tbaa !25
  %18 = getelementptr inbounds nuw i8, ptr %16, i64 44
  store i32 %1, ptr %18, align 4, !tbaa !29
  %19 = load ptr, ptr %0, align 8, !tbaa !24
  %20 = load ptr, ptr %19, align 8, !tbaa !30
  tail call void %20(ptr noundef nonnull %0) #6
  br label %21

21:                                               ; preds = %14, %15
  %22 = getelementptr inbounds nuw i8, ptr %0, i64 96
  %23 = sext i32 %1 to i64
  %24 = getelementptr inbounds [4 x ptr], ptr %22, i64 0, i64 %23
  %25 = load ptr, ptr %24, align 8, !tbaa !31
  %26 = icmp eq ptr %25, null
  br i1 %26, label %27, label %29

27:                                               ; preds = %21
  %28 = tail call ptr @jpeg_alloc_quant_table(ptr noundef nonnull %0) #6
  store ptr %28, ptr %24, align 8, !tbaa !31
  br label %29

29:                                               ; preds = %27, %21
  %30 = phi ptr [ %28, %27 ], [ %25, %21 ]
  %31 = sext i32 %3 to i64
  %.not38 = icmp eq i32 %4, 0
  br i1 %.not38, label %.split.us, label %.split

.split.us:                                        ; preds = %29, %.split.us
  %indvars.iv41 = phi i64 [ %indvars.iv.next42, %.split.us ], [ 0, %29 ]
  %32 = getelementptr inbounds nuw i32, ptr %2, i64 %indvars.iv41
  %33 = load i32, ptr %32, align 4, !tbaa !32
  %34 = zext i32 %33 to i64
  %35 = mul nsw i64 %34, %31
  %36 = add nsw i64 %35, 50
  %37 = sdiv i64 %36, 100
  %spec.store.select.us = tail call i64 @llvm.smax.i64(i64 %37, i64 1)
  %spec.store.select4.us = tail call i64 @llvm.umin.i64(i64 %spec.store.select.us, i64 32767)
  %38 = trunc nuw nsw i64 %spec.store.select4.us to i16
  %39 = getelementptr inbounds nuw [64 x i16], ptr %30, i64 0, i64 %indvars.iv41
  store i16 %38, ptr %39, align 2, !tbaa !33
  %indvars.iv.next42 = add nuw nsw i64 %indvars.iv41, 1
  %exitcond44.not = icmp eq i64 %indvars.iv.next42, 64
  br i1 %exitcond44.not, label %.split37.us, label %.split.us, !llvm.loop !34

.split:                                           ; preds = %29, %.split
  %indvars.iv = phi i64 [ %indvars.iv.next, %.split ], [ 0, %29 ]
  %40 = getelementptr inbounds nuw i32, ptr %2, i64 %indvars.iv
  %41 = load i32, ptr %40, align 4, !tbaa !32
  %42 = zext i32 %41 to i64
  %43 = mul nsw i64 %42, %31
  %44 = add nsw i64 %43, 50
  %45 = sdiv i64 %44, 100
  %spec.store.select = tail call i64 @llvm.smax.i64(i64 %45, i64 1)
  %spec.store.select4 = tail call i64 @llvm.umin.i64(i64 %spec.store.select, i64 32767)
  %46 = icmp sgt i64 %43, 25549
  %47 = trunc nuw nsw i64 %spec.store.select4 to i16
  %spec.select = select i1 %46, i16 255, i16 %47
  %48 = getelementptr inbounds nuw [64 x i16], ptr %30, i64 0, i64 %indvars.iv
  store i16 %spec.select, ptr %48, align 2, !tbaa !33
  %indvars.iv.next = add nuw nsw i64 %indvars.iv, 1
  %exitcond.not = icmp eq i64 %indvars.iv.next, 64
  br i1 %exitcond.not, label %.split37.us, label %.split, !llvm.loop !34

.split37.us:                                      ; preds = %.split, %.split.us
  %49 = getelementptr inbounds nuw i8, ptr %30, i64 128
  store i32 0, ptr %49, align 4, !tbaa !36
  ret void
}